target datalayout = "e-m:e-p270:32:32-p271:32:32-p272:64:64-i64:64-i128:128-f80:128-n8:16:32:64-S128"
target triple = "x86_64-pc-linux-gnu"

%"class.std::map" = type { %"class.std::_Rb_tree" }
%"class.std::_Rb_tree" = type { %"struct.std::_Rb_tree<std::__cxx11::basic_string<char>, std::pair<const std::__cxx11::basic_string<char>, int>, std::_Select1st<std::pair<const std::__cxx11::basic_string<char>, int>>, std::less<std::__cxx11::basic_string<char>>>::_Rb_tree_impl" }
%"struct.std::_Rb_tree<std::__cxx11::basic_string<char>, std::pair<const std::__cxx11::basic_string<char>, int>, std::_Select1st<std::pair<const std::__cxx11::basic_string<char>, int>>, std::less<std::__cxx11::basic_string<char>>>::_Rb_tree_impl" = type { [8 x i8], %"struct.std::_Rb_tree_header" }
%"struct.std::_Rb_tree_header" = type { %"struct.std::_Rb_tree_node_base", i64 }
%"struct.std::_Rb_tree_node_base" = type { i32, ptr, ptr, ptr }
%"class.draco::PlyReader" = type <{ %"class.std::vector.16", %"class.std::map", i32, [4 x i8] }>
%"class.std::vector.16" = type { %"struct.std::_Vector_base.17" }
%"struct.std::_Vector_base.17" = type { %"struct.std::_Vector_base<draco::PlyElement, std::allocator<draco::PlyElement>>::_Vector_impl" }
%"struct.std::_Vector_base<draco::PlyElement, std::allocator<draco::PlyElement>>::_Vector_impl" = type { %"struct.std::_Vector_base<draco::PlyElement, std::allocator<draco::PlyElement>>::_Vector_impl_data" }
%"struct.std::_Vector_base<draco::PlyElement, std::allocator<draco::PlyElement>>::_Vector_impl_data" = type { ptr, ptr, ptr }

; Function Attrs: mustprogress nounwind uwtable
define linkonce_odr dso_local noundef i64 @_ZNKSt6vectorIN5draco10PlyElementESaIS1_EE4sizeEv(ptr noundef nonnull align 8 dereferenceable(24) %0) #5 comdat align 2 {
  %2 = alloca ptr, align 8
  store ptr %0, ptr %2, align 8, !tbaa !71
  %3 = load ptr, ptr %2, align 8
  %4 = getelementptr inbounds nuw %"struct.std::_Vector_base.17", ptr %3, i32 0, i32 0
  %5 = getelementptr inbounds nuw %"struct.std::_Vector_base<draco::PlyElement, std::allocator<draco::PlyElement>>::_Vector_impl_data", ptr %4, i32 0, i32 1
  %6 = load ptr, ptr %5, align 8, !tbaa !114
  %7 = getelementptr inbounds nuw %"struct.std::_Vector_base.17", ptr %3, i32 0, i32 0
  %8 = getelementptr inbounds nuw %"struct.std::_Vector_base<draco::PlyElement, std::allocator<draco::PlyElement>>::_Vector_impl_data", ptr %7, i32 0, i32 0
  %9 = load ptr, ptr %8, align 8, !tbaa !115
  %10 = ptrtoint ptr %6 to i64
  %11 = ptrtoint ptr %9 to i64
  %12 = sub i64 %10, %11
  %13 = sdiv exact i64 %12, 112
  ret i64 %13
}

; Function Attrs: mustprogress uwtable
define dso_local noundef zeroext i1 @_ZN5draco9PlyReader19ParsePropertiesDataEPNS_13DecoderBufferE(ptr noundef nonnull align 8 dereferenceable(76) %0, ptr noundef %1) #4 align 2 {
  %3 = alloca i1, align 1
  %4 = alloca ptr, align 8
  %5 = alloca ptr, align 8
  %6 = alloca i32, align 4
  %7 = alloca i32, align 4
  store ptr %0, ptr %4, align 8, !tbaa !62
  store ptr %1, ptr %5, align 8, !tbaa !73
  %8 = load ptr, ptr %4, align 8
  call void @llvm.lifetime.start.p0(i64 4, ptr %6) #3
  store i32 0, ptr %6, align 4, !tbaa !96
  br label %9

9:                                                ; preds = %38, %2
  %10 = load i32, ptr %6, align 4, !tbaa !96
  %11 = getelementptr inbounds nuw %"class.draco::PlyReader", ptr %8, i32 0, i32 0
  %12 = call noundef i64 @_ZNKSt6vectorIN5draco10PlyElementESaIS1_EE4sizeEv(ptr noundef nonnull align 8 dereferenceable(24) %11) #3
  %13 = trunc i64 %12 to i32
  %14 = icmp slt i32 %10, %13
  br i1 %14, label %16, label %15

15:                                               ; preds = %9
  store i32 2, ptr %7, align 4
  br label %41

16:                                               ; preds = %9
  %17 = getelementptr inbounds nuw %"class.draco::PlyReader", ptr %8, i32 0, i32 2
  %18 = load i32, ptr %17, align 8, !tbaa !64
  %19 = icmp eq i32 %18, 0
  br i1 %19, label %20, label %26

20:                                               ; preds = %16
  %21 = load ptr, ptr %5, align 8, !tbaa !73
  %22 = load i32, ptr %6, align 4, !tbaa !96
  %23 = call noundef zeroext i1 @_ZN5draco9PlyReader16ParseElementDataEPNS_13DecoderBufferEi(ptr noundef nonnull align 8 dereferenceable(76) %8, ptr noundef %21, i32 noundef %22)
  br i1 %23, label %25, label %24

24:                                               ; preds = %20
  store i1 false, ptr %3, align 1
  store i32 1, ptr %7, align 4
  br label %41

25:                                               ; preds = %20
  br label %37

26:                                               ; preds = %16
  %27 = getelementptr inbounds nuw %"class.draco::PlyReader", ptr %8, i32 0, i32 2
  %28 = load i32, ptr %27, align 8, !tbaa !64
  %29 = icmp eq i32 %28, 1
  br i1 %29, label %30, label %36

30:                                               ; preds = %26
  %31 = load ptr, ptr %5, align 8, !tbaa !73
  %32 = load i32, ptr %6, align 4, !tbaa !96
  %33 = call noundef zeroext i1 @_ZN5draco9PlyReader21ParseElementDataAsciiEPNS_13DecoderBufferEi(ptr noundef nonnull align 8 dereferenceable(76) %8, ptr noundef %31, i32 noundef %32)
  br i1 %33, label %35, label %34

34:                                               ; preds = %30
  store i1 false, ptr %3, align 1
  store i32 1, ptr %7, align 4
  br label %41

35:                                               ; preds = %30
  br label %36

36:                                               ; preds = %35, %26
  br label %37

37:                                               ; preds = %36, %25
  br label %38

38:                                               ; preds = %37
  %39 = load i32, ptr %6, align 4, !tbaa !96
  %40 = add nsw i32 %39, 1
  store i32 %40, ptr %6, align 4, !tbaa !96
  br label %9, !llvm.loop !97

41:                                               ; preds = %34, %24, %15
  call void @llvm.lifetime.end.p0(i64 4, ptr %6) #3
  %42 = load i32, ptr %7, align 4
  switch i32 %42, label %46 [
    i32 2, label %43
    i32 1, label %44
  ]

43:                                               ; preds = %41
  store i1 true, ptr %3, align 1
  br label %44

44:                                               ; preds = %43, %41
  %45 = load i1, ptr %3, align 1
  ret i1 %45

46:                                               ; preds = %41
  unreachable
}