; Function Attrs: mustprogress uwtable
define dso_local noundef zeroext i1 @_ZN5draco9PlyReader19ParsePropertiesDataEPNS_13DecoderBufferE(ptr noundef nonnull readonly align 8 captures(none) dereferenceable(76) %0, ptr noundef %1) local_unnamed_addr #3 align 2 {
  %3 = getelementptr inbounds nuw i8, ptr %0, i64 8
  %4 = load ptr, ptr %3, align 8, !tbaa !96
  %5 = load ptr, ptr %0, align 8, !tbaa !97
  %6 = ptrtoint ptr %4 to i64
  %7 = ptrtoint ptr %5 to i64
  %8 = sub i64 %6, %7
  %9 = sdiv exact i64 %8, 112
  %10 = trunc i64 %9 to i32
  %11 = icmp slt i32 %10, 1
  br i1 %11, label %._crit_edge, label %.lr.ph

.lr.ph:                                           ; preds = %2
  %12 = getelementptr inbounds nuw i8, ptr %0, i64 72
  br label %13

13:                                               ; preds = %.lr.ph, %19
  %.0811 = phi i32 [ 0, %.lr.ph ], [ %20, %19 ]
  %14 = load i32, ptr %12, align 8, !tbaa !57
  switch i32 %14, label %19 [
    i32 0, label %15
    i32 1, label %17
  ]

15:                                               ; preds = %13
  %16 = tail call noundef zeroext i1 @_ZN5draco9PlyReader16ParseElementDataEPNS_13DecoderBufferEi(ptr noundef nonnull align 8 dereferenceable(76) %0, ptr noundef %1, i32 noundef %.0811)
  br label %19

17:                                               ; preds = %13
  %18 = tail call noundef zeroext i1 @_ZN5draco9PlyReader21ParseElementDataAsciiEPNS_13DecoderBufferEi(ptr noundef nonnull align 8 dereferenceable(76) %0, ptr noundef %1, i32 noundef %.0811)
  br i1 %18, label %19, label %._crit_edge

19:                                               ; preds = %13, %15, %17
  %20 = add nuw nsw i32 %.0811, 1
  %21 = load ptr, ptr %3, align 8, !tbaa !96
  %22 = load ptr, ptr %0, align 8, !tbaa !97
  %23 = ptrtoint ptr %21 to i64
  %24 = ptrtoint ptr %22 to i64
  %25 = sub i64 %23, %24
  %26 = sdiv exact i64 %25, 112
  %27 = trunc i64 %26 to i32
  %.not = icmp slt i32 %20, %27
  br i1 %.not, label %13, label %._crit_edge, !llvm.loop !98

._crit_edge:                                      ; preds = %19, %17, %2
  %.lcssa = phi i1 [ true, %2 ], [ false, %17 ], [ true, %19 ]
  ret i1 %.lcssa
}